target datalayout = "e-m:e-p270:32:32-p271:32:32-p272:64:64-i64:64-i128:128-f80:128-n8:16:32:64-S128"
target triple = "x86_64-pc-linux-gnu"

; Function Attrs: nounwind uwtable
define internal ptr @Pack3BytesAndSkip1SwapFirst(ptr noundef %0, ptr noundef %1, ptr noundef %2, i32 noundef %3) #0 {
  %5 = alloca ptr, align 8
  %6 = alloca ptr, align 8
  %7 = alloca ptr, align 8
  %8 = alloca i32, align 4
  store ptr %0, ptr %5, align 8
  store ptr %1, ptr %6, align 8
  store ptr %2, ptr %7, align 8
  store i32 %3, ptr %8, align 4
  %9 = load ptr, ptr %7, align 8
  %10 = getelementptr inbounds i8, ptr %9, i32 1
  store ptr %10, ptr %7, align 8
  %11 = load ptr, ptr %6, align 8
  %12 = getelementptr inbounds i16, ptr %11, i64 0
  %13 = load i16, ptr %12, align 2
  %14 = zext i16 %13 to i32
  %15 = mul i32 %14, 65281
  %16 = add i32 %15, 8388608
  %17 = lshr i32 %16, 24
  %18 = and i32 %17, 255
  %19 = trunc i32 %18 to i8
  %20 = load ptr, ptr %7, align 8
  %21 = getelementptr inbounds i8, ptr %20, i32 1
  store ptr %21, ptr %7, align 8
  store i8 %19, ptr %20, align 1
  %22 = load ptr, ptr %6, align 8
  %23 = getelementptr inbounds i16, ptr %22, i64 1
  %24 = load i16, ptr %23, align 2
  %25 = zext i16 %24 to i32
  %26 = mul i32 %25, 65281
  %27 = add i32 %26, 8388608
  %28 = lshr i32 %27, 24
  %29 = and i32 %28, 255
  %30 = trunc i32 %29 to i8
  %31 = load ptr, ptr %7, align 8
  %32 = getelementptr inbounds i8, ptr %31, i32 1
  store ptr %32, ptr %7, align 8
  store i8 %30, ptr %31, align 1
  %33 = load ptr, ptr %6, align 8
  %34 = getelementptr inbounds i16, ptr %33, i64 2
  %35 = load i16, ptr %34, align 2
  %36 = zext i16 %35 to i32
  %37 = mul i32 %36, 65281
  %38 = add i32 %37, 8388608
  %39 = lshr i32 %38, 24
  %40 = and i32 %39, 255
  %41 = trunc i32 %40 to i8
  %42 = load ptr, ptr %7, align 8
  %43 = getelementptr inbounds i8, ptr %42, i32 1
  store ptr %43, ptr %7, align 8
  store i8 %41, ptr %42, align 1
  %44 = load ptr, ptr %7, align 8
  ret ptr %44
}