; Function Attrs: mustprogress nofree norecurse nosync nounwind willreturn memory(argmem: readwrite) uwtable
define internal nonnull ptr @Pack3BytesAndSkip1SwapFirst(ptr nocapture readnone %0, ptr nocapture noundef readonly %1, ptr noundef writeonly %2, i32 %3) #3 {
  %5 = getelementptr inbounds i8, ptr %2, i64 1
  %6 = load i16, ptr %1, align 2
  %7 = zext i16 %6 to i32
  %8 = mul nuw i32 %7, 65281
  %9 = add nuw i32 %8, 8388608
  %10 = lshr i32 %9, 24
  %11 = trunc nuw i32 %10 to i8
  %12 = getelementptr inbounds i8, ptr %2, i64 2
  store i8 %11, ptr %5, align 1
  %13 = getelementptr inbounds i8, ptr %1, i64 2
  %14 = load i16, ptr %13, align 2
  %15 = zext i16 %14 to i32
  %16 = mul nuw i32 %15, 65281
  %17 = add nuw i32 %16, 8388608
  %18 = lshr i32 %17, 24
  %19 = trunc nuw i32 %18 to i8
  %20 = getelementptr inbounds i8, ptr %2, i64 3
  store i8 %19, ptr %12, align 1
  %21 = getelementptr inbounds i8, ptr %1, i64 4
  %22 = load i16, ptr %21, align 2
  %23 = zext i16 %22 to i32
  %24 = mul nuw i32 %23, 65281
  %25 = add nuw i32 %24, 8388608
  %26 = lshr i32 %25, 24
  %27 = trunc nuw i32 %26 to i8
  %28 = getelementptr inbounds i8, ptr %2, i64 4
  store i8 %27, ptr %20, align 1
  ret ptr %28
}